target datalayout = "e-m:e-p270:32:32-p271:32:32-p272:64:64-i64:64-i128:128-f80:128-n8:16:32:64-S128"
target triple = "x86_64-pc-linux-gnu"

%struct.code = type { i8, i8, i16 }
%struct.z_stream_s = type { ptr, i32, i64, ptr, i32, i64, ptr, ptr, ptr, ptr, ptr, i32, i64, i64 }
%struct.inflate_state = type { i32, i32, i32, i32, i32, i32, i64, i64, ptr, i32, i32, i32, i32, ptr, i64, i32, i32, i32, i32, ptr, ptr, i32, i32, i32, i32, i32, i32, ptr, [320 x i16], [288 x i16], [1444 x %struct.code], i32, i32, i32 }

; Function Attrs: nounwind uwtable
define i32 @inflateSetDictionary(ptr noundef %0, ptr noundef %1, i32 noundef %2) #0 {
  %4 = alloca i32, align 4
  %5 = alloca ptr, align 8
  %6 = alloca ptr, align 8
  %7 = alloca i32, align 4
  %8 = alloca ptr, align 8
  %9 = alloca i64, align 8
  %10 = alloca i32, align 4
  store ptr %0, ptr %5, align 8, !tbaa !3
  store ptr %1, ptr %6, align 8, !tbaa !44
  store i32 %2, ptr %7, align 4, !tbaa !38
  call void @llvm.lifetime.start.p0(i64 8, ptr %8) #4
  call void @llvm.lifetime.start.p0(i64 8, ptr %9) #4
  %11 = load ptr, ptr %5, align 8, !tbaa !3
  %12 = icmp eq ptr %11, null
  br i1 %12, label %18, label %13

13:                                               ; preds = %3
  %14 = load ptr, ptr %5, align 8, !tbaa !3
  %15 = getelementptr inbounds nuw %struct.z_stream_s, ptr %14, i32 0, i32 7
  %16 = load ptr, ptr %15, align 8, !tbaa !8
  %17 = icmp eq ptr %16, null
  br i1 %17, label %18, label %19

18:                                               ; preds = %13, %3
  store i32 -2, ptr %4, align 4
  store i32 1, ptr %10, align 4
  br label %112

19:                                               ; preds = %13
  %20 = load ptr, ptr %5, align 8, !tbaa !3
  %21 = getelementptr inbounds nuw %struct.z_stream_s, ptr %20, i32 0, i32 7
  %22 = load ptr, ptr %21, align 8, !tbaa !8
  store ptr %22, ptr %8, align 8, !tbaa !14
  %23 = load ptr, ptr %8, align 8, !tbaa !14
  %24 = getelementptr inbounds nuw %struct.inflate_state, ptr %23, i32 0, i32 2
  %25 = load i32, ptr %24, align 8, !tbaa !43
  %26 = icmp ne i32 %25, 0
  br i1 %26, label %27, label %33

27:                                               ; preds = %19
  %28 = load ptr, ptr %8, align 8, !tbaa !14
  %29 = getelementptr inbounds nuw %struct.inflate_state, ptr %28, i32 0, i32 0
  %30 = load i32, ptr %29, align 8, !tbaa !23
  %31 = icmp ne i32 %30, 10
  br i1 %31, label %32, label %33

32:                                               ; preds = %27
  store i32 -2, ptr %4, align 4
  store i32 1, ptr %10, align 4
  br label %112

33:                                               ; preds = %27, %19
  %34 = load ptr, ptr %8, align 8, !tbaa !14
  %35 = getelementptr inbounds nuw %struct.inflate_state, ptr %34, i32 0, i32 0
  %36 = load i32, ptr %35, align 8, !tbaa !23
  %37 = icmp eq i32 %36, 10
  br i1 %37, label %38, label %51

38:                                               ; preds = %33
  %39 = call i64 @adler32(i64 noundef 0, ptr noundef null, i32 noundef 0)
  store i64 %39, ptr %9, align 8, !tbaa !51
  %40 = load i64, ptr %9, align 8, !tbaa !51
  %41 = load ptr, ptr %6, align 8, !tbaa !44
  %42 = load i32, ptr %7, align 4, !tbaa !38
  %43 = call i64 @adler32(i64 noundef %40, ptr noundef %41, i32 noundef %42)
  store i64 %43, ptr %9, align 8, !tbaa !51
  %44 = load i64, ptr %9, align 8, !tbaa !51
  %45 = load ptr, ptr %8, align 8, !tbaa !14
  %46 = getelementptr inbounds nuw %struct.inflate_state, ptr %45, i32 0, i32 6
  %47 = load i64, ptr %46, align 8, !tbaa !54
  %48 = icmp ne i64 %44, %47
  br i1 %48, label %49, label %50

49:                                               ; preds = %38
  store i32 -3, ptr %4, align 4
  store i32 1, ptr %10, align 4
  br label %112

50:                                               ; preds = %38
  br label %51

51:                                               ; preds = %50, %33
  %52 = load ptr, ptr %5, align 8, !tbaa !3
  %53 = load ptr, ptr %5, align 8, !tbaa !3
  %54 = getelementptr inbounds nuw %struct.z_stream_s, ptr %53, i32 0, i32 4
  %55 = load i32, ptr %54, align 8, !tbaa !50
  %56 = call i32 @updatewindow(ptr noundef %52, i32 noundef %55)
  %57 = icmp ne i32 %56, 0
  br i1 %57, label %58, label %61

58:                                               ; preds = %51
  %59 = load ptr, ptr %8, align 8, !tbaa !14
  %60 = getelementptr inbounds nuw %struct.inflate_state, ptr %59, i32 0, i32 0
  store i32 30, ptr %60, align 8, !tbaa !23
  store i32 -4, ptr %4, align 4
  store i32 1, ptr %10, align 4
  br label %112

61:                                               ; preds = %51
  %62 = load i32, ptr %7, align 4, !tbaa !38
  %63 = load ptr, ptr %8, align 8, !tbaa !14
  %64 = getelementptr inbounds nuw %struct.inflate_state, ptr %63, i32 0, i32 10
  %65 = load i32, ptr %64, align 4, !tbaa !28
  %66 = icmp ugt i32 %62, %65
  br i1 %66, label %67, label %90

67:                                               ; preds = %61
  %68 = load ptr, ptr %8, align 8, !tbaa !14
  %69 = getelementptr inbounds nuw %struct.inflate_state, ptr %68, i32 0, i32 13
  %70 = load ptr, ptr %69, align 8, !tbaa !39
  %71 = load ptr, ptr %6, align 8, !tbaa !44
  %72 = load i32, ptr %7, align 4, !tbaa !38
  %73 = zext i32 %72 to i64
  %74 = getelementptr inbounds nuw i8, ptr %71, i64 %73
  %75 = load ptr, ptr %8, align 8, !tbaa !14
  %76 = getelementptr inbounds nuw %struct.inflate_state, ptr %75, i32 0, i32 10
  %77 = load i32, ptr %76, align 4, !tbaa !28
  %78 = zext i32 %77 to i64
  %79 = sub i64 0, %78
  %80 = getelementptr inbounds i8, ptr %74, i64 %79
  %81 = load ptr, ptr %8, align 8, !tbaa !14
  %82 = getelementptr inbounds nuw %struct.inflate_state, ptr %81, i32 0, i32 10
  %83 = load i32, ptr %82, align 4, !tbaa !28
  %84 = zext i32 %83 to i64
  call void @llvm.memcpy.p0.p0.i64(ptr align 1 %70, ptr align 1 %80, i64 %84, i1 false)
  %85 = load ptr, ptr %8, align 8, !tbaa !14
  %86 = getelementptr inbounds nuw %struct.inflate_state, ptr %85, i32 0, i32 10
  %87 = load i32, ptr %86, align 4, !tbaa !28
  %88 = load ptr, ptr %8, align 8, !tbaa !14
  %89 = getelementptr inbounds nuw %struct.inflate_state, ptr %88, i32 0, i32 11
  store i32 %87, ptr %89, align 8, !tbaa !29
  br label %109

90:                                               ; preds = %61
  %91 = load ptr, ptr %8, align 8, !tbaa !14
  %92 = getelementptr inbounds nuw %struct.inflate_state, ptr %91, i32 0, i32 13
  %93 = load ptr, ptr %92, align 8, !tbaa !39
  %94 = load ptr, ptr %8, align 8, !tbaa !14
  %95 = getelementptr inbounds nuw %struct.inflate_state, ptr %94, i32 0, i32 10
  %96 = load i32, ptr %95, align 4, !tbaa !28
  %97 = zext i32 %96 to i64
  %98 = getelementptr inbounds nuw i8, ptr %93, i64 %97
  %99 = load i32, ptr %7, align 4, !tbaa !38
  %100 = zext i32 %99 to i64
  %101 = sub i64 0, %100
  %102 = getelementptr inbounds i8, ptr %98, i64 %101
  %103 = load ptr, ptr %6, align 8, !tbaa !44
  %104 = load i32, ptr %7, align 4, !tbaa !38
  %105 = zext i32 %104 to i64
  call void @llvm.memcpy.p0.p0.i64(ptr align 1 %102, ptr align 1 %103, i64 %105, i1 false)
  %106 = load i32, ptr %7, align 4, !tbaa !38
  %107 = load ptr, ptr %8, align 8, !tbaa !14
  %108 = getelementptr inbounds nuw %struct.inflate_state, ptr %107, i32 0, i32 11
  store i32 %106, ptr %108, align 8, !tbaa !29
  br label %109

109:                                              ; preds = %90, %67
  %110 = load ptr, ptr %8, align 8, !tbaa !14
  %111 = getelementptr inbounds nuw %struct.inflate_state, ptr %110, i32 0, i32 3
  store i32 1, ptr %111, align 4, !tbaa !25
  store i32 0, ptr %4, align 4
  store i32 1, ptr %10, align 4
  br label %112

112:                                              ; preds = %109, %58, %49, %32, %18
  call void @llvm.lifetime.end.p0(i64 8, ptr %9) #4
  call void @llvm.lifetime.end.p0(i64 8, ptr %8) #4
  %113 = load i32, ptr %4, align 4
  ret i32 %113
}