; Function Attrs: nounwind uwtable
define range(i32 -4, 1) i32 @inflateSetDictionary(ptr noundef readonly %0, ptr noundef %1, i32 noundef %2) local_unnamed_addr #2 {
  %4 = icmp eq ptr %0, null
  br i1 %4, label %46, label %5

5:                                                ; preds = %3
  %6 = getelementptr inbounds nuw i8, ptr %0, i64 56
  %7 = load ptr, ptr %6, align 8, !tbaa !3
  %8 = icmp eq ptr %7, null
  br i1 %8, label %46, label %9

9:                                                ; preds = %5
  %10 = getelementptr inbounds nuw i8, ptr %7, i64 8
  %11 = load i32, ptr %10, align 8, !tbaa !34
  %.not = icmp eq i32 %11, 0
  %.pr = load i32, ptr %7, align 8, !tbaa !17
  %12 = icmp eq i32 %.pr, 10
  br i1 %.not, label %14, label %13

13:                                               ; preds = %9
  br i1 %12, label %.thread, label %46

14:                                               ; preds = %9
  br i1 %12, label %.thread, label %19

.thread:                                          ; preds = %13, %14
  %15 = tail call i64 @adler32(i64 noundef 0, ptr noundef null, i32 noundef 0) #10
  %16 = tail call i64 @adler32(i64 noundef %15, ptr noundef %1, i32 noundef %2) #10
  %17 = getelementptr inbounds nuw i8, ptr %7, i64 24
  %18 = load i64, ptr %17, align 8, !tbaa !48
  %.not37 = icmp eq i64 %16, %18
  br i1 %.not37, label %19, label %46

19:                                               ; preds = %.thread, %14
  %20 = getelementptr inbounds nuw i8, ptr %0, i64 32
  %21 = load i32, ptr %20, align 8, !tbaa !43
  %22 = tail call fastcc i32 @updatewindow(ptr noundef %0, i32 noundef %21)
  %.not38 = icmp eq i32 %22, 0
  br i1 %.not38, label %24, label %23

23:                                               ; preds = %19
  store i32 30, ptr %7, align 8, !tbaa !17
  br label %46

24:                                               ; preds = %19
  %25 = getelementptr inbounds nuw i8, ptr %7, i64 52
  %26 = load i32, ptr %25, align 4, !tbaa !22
  %27 = icmp ugt i32 %2, %26
  %28 = getelementptr inbounds nuw i8, ptr %7, i64 64
  %29 = load ptr, ptr %28, align 8, !tbaa !32
  br i1 %27, label %30, label %37

30:                                               ; preds = %24
  %31 = zext i32 %2 to i64
  %32 = getelementptr inbounds nuw i8, ptr %1, i64 %31
  %33 = zext i32 %26 to i64
  %34 = sub nsw i64 0, %33
  %35 = getelementptr inbounds i8, ptr %32, i64 %34
  tail call void @llvm.memcpy.p0.p0.i64(ptr align 1 %29, ptr nonnull align 1 %35, i64 %33, i1 false)
  %36 = load i32, ptr %25, align 4, !tbaa !22
  br label %43

37:                                               ; preds = %24
  %38 = zext i32 %26 to i64
  %39 = getelementptr inbounds nuw i8, ptr %29, i64 %38
  %40 = zext i32 %2 to i64
  %41 = sub nsw i64 0, %40
  %42 = getelementptr inbounds i8, ptr %39, i64 %41
  tail call void @llvm.memcpy.p0.p0.i64(ptr align 1 %42, ptr align 1 %1, i64 %40, i1 false)
  br label %43

43:                                               ; preds = %37, %30
  %.sink = phi i32 [ %36, %30 ], [ %2, %37 ]
  %44 = getelementptr inbounds nuw i8, ptr %7, i64 56
  store i32 %.sink, ptr %44, align 8, !tbaa !23
  %45 = getelementptr inbounds nuw i8, ptr %7, i64 12
  store i32 1, ptr %45, align 4, !tbaa !19
  br label %46

46:                                               ; preds = %.thread, %13, %3, %5, %43, %23
  %.0 = phi i32 [ -4, %23 ], [ 0, %43 ], [ -2, %5 ], [ -2, %3 ], [ -2, %13 ], [ -3, %.thread ]
  ret i32 %.0
}